; Function Attrs: mustprogress nounwind uwtable
define dso_local void @_ZNK4llvm10AsmPrinter19emitLabelPlusOffsetEPKNS_8MCSymbolEmjb(ptr nocapture noundef nonnull readonly align 8 dereferenceable(785) %0, ptr noundef %1, i64 noundef %2, i32 noundef %3, i1 noundef zeroext %4) local_unnamed_addr #0 align 2 {
  %6 = getelementptr inbounds nuw i8, ptr %0, i64 64
  %7 = load ptr, ptr %6, align 8
  %8 = getelementptr inbounds nuw i8, ptr %7, i64 338
  %9 = load i8, ptr %8, align 2
  %10 = trunc i8 %9 to i1
  %brmerge.demorgan = and i1 %4, %10
  br i1 %brmerge.demorgan, label %11, label %22

11:                                               ; preds = %5
  %12 = getelementptr inbounds nuw i8, ptr %0, i64 80
  %13 = load ptr, ptr %12, align 8
  %14 = load ptr, ptr %13, align 8
  %15 = getelementptr inbounds i8, ptr %14, i64 368
  %16 = load ptr, ptr %15, align 8
  tail call void %16(ptr noundef nonnull align 8 dereferenceable(288) %13, ptr noundef %1, i64 noundef %2) #33
  %17 = icmp ugt i32 %3, 4
  br i1 %17, label %18, label %34

18:                                               ; preds = %11
  %19 = load ptr, ptr %12, align 8
  %20 = add i32 %3, -4
  %21 = zext i32 %20 to i64
  tail call void @_ZN4llvm10MCStreamer9emitZerosEm(ptr noundef nonnull align 8 dereferenceable(288) %19, i64 noundef %21) #33
  br label %34

22:                                               ; preds = %5
  %23 = getelementptr inbounds nuw i8, ptr %0, i64 72
  %24 = load ptr, ptr %23, align 8
  %25 = tail call noundef ptr @_ZN4llvm15MCSymbolRefExpr6createEPKNS_8MCSymbolENS0_11VariantKindERNS_9MCContextENS_5SMLocE(ptr noundef %1, i16 noundef zeroext 0, ptr noundef nonnull align 8 dereferenceable(2432) %24, ptr null) #33
  %.not = icmp eq i64 %2, 0
  br i1 %.not, label %31, label %26

26:                                               ; preds = %22
  %27 = load ptr, ptr %23, align 8
  %28 = tail call noundef ptr @_ZN4llvm14MCConstantExpr6createElRNS_9MCContextEbj(i64 noundef %2, ptr noundef nonnull align 8 dereferenceable(2432) %27, i1 noundef zeroext false, i32 noundef 0) #33
  %29 = load ptr, ptr %23, align 8
  %30 = tail call noundef ptr @_ZN4llvm12MCBinaryExpr6createENS0_6OpcodeEPKNS_6MCExprES4_RNS_9MCContextENS_5SMLocE(i32 noundef 0, ptr noundef %25, ptr noundef %28, ptr noundef nonnull align 8 dereferenceable(2432) %29, ptr null) #33
  br label %31

31:                                               ; preds = %26, %22
  %.0 = phi ptr [ %30, %26 ], [ %25, %22 ]
  %32 = getelementptr inbounds nuw i8, ptr %0, i64 80
  %33 = load ptr, ptr %32, align 8
  tail call void @_ZN4llvm10MCStreamer9emitValueEPKNS_6MCExprEjNS_5SMLocE(ptr noundef nonnull align 8 dereferenceable(288) %33, ptr noundef %.0, i32 noundef %3, ptr null) #33
  br label %34

34:                                               ; preds = %11, %18, %31
  ret void
}